#include <math.h>
#include <stdio.h>
#include <stdlib.h>
#include <string.h>

int main()
{
	int row,col,k,i,j;
	int a[100][100]={{0},{0}};
	scanf("%d%d",&row,&col);
		for(i=0;i<row;i++)
		{
			for(j=0;j<col;j++)
			{
			scanf("%d",&a[i][j]);
			}
		}
		for(k=0;k<row+col-1;)
		{
			for(i=0;i<row;i++)
			{
				for(j=0;j<col;j++)
				{
				if(i+j==k)
				{
					printf("%d\n",a[i][j]);
				}
				}
			}
		k++;
		}
}

